#include <math.h>
#include <stdio.h>
#include <stdlib.h>
#include <string.h>
#include <iostream>
using namespace std;

int main()
{
int a[1000];
a[0]=1;
int num,i;
for(i=1;i<1000;i++)
	a[i]=-1;
cin>>num;
while(num--)
{
	for(i=0;i<1000;i++)
	{
		if(a[i]!=-1)
		{
			a[i]*=2;
		}
		else
			break;
	}
	for(i=0;i<1000;i++)
	{
		if(a[i]>9)
		{
			a[i]=a[i]%10;
			if(a[i+1]==-1)
				a[i+1]=0;
			a[i+1]++;
		}
		else if(a[i]==-1)
			break;
		else
			continue;
	}
}
for(i=999;i>=0;i--)
{
	if(a[i]!=-1)
		cout<<a[i];
}
}
